SF:/Users/thomaspritchard/Documents/projects/NeuralNote/crates/neuralnote-core/src/entries.rs
FN:11,_RNvNtCs9ZsrUc3T9pb_15neuralnote_core7entries10canon_root
FN:137,_RNvNtCs9ZsrUc3T9pb_15neuralnote_core7entries10move_entry
FN:38,_RNvNtCs9ZsrUc3T9pb_15neuralnote_core7entries11create_note
FN:51,_RNvNtCs9ZsrUc3T9pb_15neuralnote_core7entries12rename_entry
FN:25,_RNvNtCs9ZsrUc3T9pb_15neuralnote_core7entries13create_folder
FN:20,_RNvNtCs9ZsrUc3T9pb_15neuralnote_core7entries13is_same_entry
FN:180,_RNvNtCs9ZsrUc3T9pb_15neuralnote_core7entries19ensure_md_extension
FN:103,_RNvNtCs9ZsrUc3T9pb_15neuralnote_core7entries22apply_case_only_rename
FN:170,_RNvNtCs9ZsrUc3T9pb_15neuralnote_core7entries12delete_entry
FN:13,_RNCNvNtCs9ZsrUc3T9pb_15neuralnote_core7entries10canon_root0B5_
FN:154,_RNCNvNtCs9ZsrUc3T9pb_15neuralnote_core7entries10move_entry0B5_
FN:59,_RNCNvNtCs9ZsrUc3T9pb_15neuralnote_core7entries12rename_entry0B5_
FN:69,_RNCNvNtCs9ZsrUc3T9pb_15neuralnote_core7entries12rename_entrys0_0B5_
FN:63,_RNCNvNtCs9ZsrUc3T9pb_15neuralnote_core7entries12rename_entrys_0B5_
FNDA:7,_RNvNtCs9ZsrUc3T9pb_15neuralnote_core7entries10canon_root
FNDA:2,_RNvNtCs9ZsrUc3T9pb_15neuralnote_core7entries10move_entry
FNDA:3,_RNvNtCs9ZsrUc3T9pb_15neuralnote_core7entries11create_note
FNDA:4,_RNvNtCs9ZsrUc3T9pb_15neuralnote_core7entries12rename_entry
FNDA:2,_RNvNtCs9ZsrUc3T9pb_15neuralnote_core7entries13create_folder
FNDA:2,_RNvNtCs9ZsrUc3T9pb_15neuralnote_core7entries13is_same_entry
FNDA:6,_RNvNtCs9ZsrUc3T9pb_15neuralnote_core7entries19ensure_md_extension
FNDA:2,_RNvNtCs9ZsrUc3T9pb_15neuralnote_core7entries22apply_case_only_rename
FNDA:0,_RNvNtCs9ZsrUc3T9pb_15neuralnote_core7entries12delete_entry
FNDA:0,_RNCNvNtCs9ZsrUc3T9pb_15neuralnote_core7entries10canon_root0B5_
FNDA:0,_RNCNvNtCs9ZsrUc3T9pb_15neuralnote_core7entries10move_entry0B5_
FNDA:0,_RNCNvNtCs9ZsrUc3T9pb_15neuralnote_core7entries12rename_entry0B5_
FNDA:3,_RNCNvNtCs9ZsrUc3T9pb_15neuralnote_core7entries12rename_entrys0_0B5_
FNDA:3,_RNCNvNtCs9ZsrUc3T9pb_15neuralnote_core7entries12rename_entrys_0B5_
FNF:14
FNH:10
DA:11,7
DA:12,7
DA:13,7
DA:14,7
DA:20,2
DA:21,2
DA:22,2
DA:25,2
DA:26,2
DA:27,2
DA:28,2
DA:29,2
DA:30,1
DA:31,1
DA:32,1
DA:33,1
DA:34,2
DA:38,3
DA:39,3
DA:40,3
DA:41,3
DA:42,3
DA:43,3
DA:44,1
DA:45,2
DA:46,2
DA:47,2
DA:48,3
DA:51,4
DA:52,4
DA:53,3
DA:54,3
DA:55,0
DA:56,3
DA:57,3
DA:58,3
DA:59,3
DA:61,3
DA:62,3
DA:63,3
DA:64,3
DA:67,3
DA:68,3
DA:69,3
DA:70,3
DA:71,3
DA:72,3
DA:74,0
DA:84,3
DA:85,2
DA:86,1
DA:88,1
DA:89,1
DA:90,0
DA:91,1
DA:92,1
DA:93,0
DA:94,1
DA:95,1
DA:96,1
DA:97,4
DA:103,2
DA:104,2
DA:105,2
DA:106,2
DA:107,2
DA:108,2
DA:109,2
DA:110,2
DA:112,0
DA:113,2
DA:114,2
DA:116,2
DA:118,2
DA:119,2
DA:123,0
DA:124,0
DA:125,0
DA:126,0
DA:127,0
DA:128,0
DA:129,0
DA:131,2
DA:132,2
DA:133,2
DA:137,2
DA:138,2
DA:139,2
DA:140,2
DA:141,0
DA:142,2
DA:143,2
DA:144,0
DA:145,2
DA:147,2
DA:148,1
DA:149,1
DA:150,1
DA:151,1
DA:152,1
DA:153,1
DA:154,1
DA:155,1
DA:156,1
DA:157,0
DA:158,1
DA:159,1
DA:160,0
DA:161,0
DA:162,0
DA:163,1
DA:164,1
DA:165,1
DA:166,2
DA:170,0
DA:171,0
DA:172,0
DA:173,0
DA:174,0
DA:175,0
DA:176,0
DA:177,0
DA:180,6
DA:181,6
DA:182,6
DA:183,2
DA:185,4
DA:187,6
BRF:0
BRH:0
LF:133
LH:104
end_of_record
SF:/Users/thomaspritchard/Documents/projects/NeuralNote/crates/neuralnote-core/src/error.rs
FN:56,_RNvXs1_NtCs9ZsrUc3T9pb_15neuralnote_core5errorNtB5_9CoreErrorINtNtCs6sq8b9ugfBC_4core7convert4FromNtCsfl7TddV36Lt_5trash5ErrorE4from
FN:30,_RNvXNtCs9ZsrUc3T9pb_15neuralnote_core5errorNtB2_9CoreErrorNtNtCs6sq8b9ugfBC_4core3fmt7Display3fmt
FN:46,_RNvXs0_NtCs9ZsrUc3T9pb_15neuralnote_core5errorNtB5_9CoreErrorINtNtCs6sq8b9ugfBC_4core7convert4FromNtNtNtCsaLOjE9VYtxK_3std2io5error5ErrorE4from
FNDA:0,_RNvXs1_NtCs9ZsrUc3T9pb_15neuralnote_core5errorNtB5_9CoreErrorINtNtCs6sq8b9ugfBC_4core7convert4FromNtCsfl7TddV36Lt_5trash5ErrorE4from
FNDA:7,_RNvXNtCs9ZsrUc3T9pb_15neuralnote_core5errorNtB2_9CoreErrorNtNtCs6sq8b9ugfBC_4core3fmt7Display3fmt
FNDA:2,_RNvXs0_NtCs9ZsrUc3T9pb_15neuralnote_core5errorNtB5_9CoreErrorINtNtCs6sq8b9ugfBC_4core7convert4FromNtNtNtCsaLOjE9VYtxK_3std2io5error5ErrorE4from
FNF:3
FNH:2
DA:30,7
DA:31,7
DA:32,1
DA:33,1
DA:34,1
DA:35,1
DA:36,1
DA:37,1
DA:38,1
DA:40,7
DA:46,2
DA:47,2
DA:48,0
DA:49,1
DA:50,1
DA:52,2
DA:56,0
DA:57,0
DA:58,0
BRF:0
BRH:0
LF:19
LH:15
end_of_record
SF:/Users/thomaspritchard/Documents/projects/NeuralNote/crates/neuralnote-core/src/lib.rs
FN:347,_RNvNtCs9ZsrUc3T9pb_15neuralnote_core5tests10alias_bomb
FN:521,_RNvNtCs9ZsrUc3T9pb_15neuralnote_core5tests11slice_chars
FN:850,_RNvNtCs9ZsrUc3T9pb_15neuralnote_core5tests4edge
FN:30,_RNvNtCs9ZsrUc3T9pb_15neuralnote_core5tests5vault
FN:578,_RNvNtCs9ZsrUc3T9pb_15neuralnote_core5testss_18search_matches_cjk
FN:49,_RNvNtCs9ZsrUc3T9pb_15neuralnote_core5testss_24allows_path_inside_vault
FN:73,_RNvNtCs9ZsrUc3T9pb_15neuralnote_core5testss_26reads_frontmatter_and_body
FN:203,_RNvNtCs9ZsrUc3T9pb_15neuralnote_core5testss_27case_only_rename_is_allowed
FN:99,_RNvNtCs9ZsrUc3T9pb_15neuralnote_core5testss_27crash_safe_write_roundtrips
FN:1017,_RNvNtCs9ZsrUc3T9pb_15neuralnote_core5testss_29graph_of_empty_vault_is_empty
FN:193,_RNvNtCs9ZsrUc3T9pb_15neuralnote_core5testss_29reads_utf8_note_as_non_binary
FN:813,_RNvNtCs9ZsrUc3T9pb_15neuralnote_core5testss_29search_caps_very_long_queries
FN:136,_RNvNtCs9ZsrUc3T9pb_15neuralnote_core5testss_30cannot_move_folder_into_itself
FN:39,_RNvNtCs9ZsrUc3T9pb_15neuralnote_core5testss_30rejects_path_escape_via_dotdot
FN:834,_RNvNtCs9ZsrUc3T9pb_15neuralnote_core5testss_30search_folds_greek_final_sigma
FN:600,_RNvNtCs9ZsrUc3T9pb_15neuralnote_core5testss_30search_handles_combining_marks
FN:251,_RNvNtCs9ZsrUc3T9pb_15neuralnote_core5testss_31create_and_open_vault_roundtrip
FN:726,_RNvNtCs9ZsrUc3T9pb_15neuralnote_core5testss_31search_skips_hidden_directories
FN:737,_RNvNtCs9ZsrUc3T9pb_15neuralnote_core5testss_32search_includes_frontmatter_text
FN:539,_RNvNtCs9ZsrUc3T9pb_15neuralnote_core5testss_32search_is_ascii_case_insensitive
FN:715,_RNvNtCs9ZsrUc3T9pb_15neuralnote_core5testss_32search_only_scans_markdown_files
FN:1026,_RNvNtCs9ZsrUc3T9pb_15neuralnote_core5testss_33graph_title_agrees_with_read_note
FN:213,_RNvNtCs9ZsrUc3T9pb_15neuralnote_core5testss_34case_only_rename_handles_non_ascii
FN:146,_RNvNtCs9ZsrUc3T9pb_15neuralnote_core5testss_34read_note_flags_non_utf8_as_binary
FN:751,_RNvNtCs9ZsrUc3T9pb_15neuralnote_core5testss_35search_reads_non_utf8_notes_lossily
FN:1088,_RNvNtCs9ZsrUc3T9pb_15neuralnote_core5testss_36graph_inline_span_masks_across_lines
FN:1037,_RNvNtCs9ZsrUc3T9pb_15neuralnote_core5testss_36graph_keeps_node_for_unreadable_note
FN:268,_RNvNtCs9ZsrUc3T9pb_15neuralnote_core5testss_36open_vault_rejects_missing_and_files
FN:308,_RNvNtCs9ZsrUc3T9pb_15neuralnote_core5testss_37create_folder_move_and_rename_succeed
FN:969,_RNvNtCs9ZsrUc3T9pb_15neuralnote_core5testss_37graph_skips_unresolved_and_self_links
FN:176,_RNvNtCs9ZsrUc3T9pb_15neuralnote_core5testss_37lossy_note_can_be_saved_not_just_read
FN:283,_RNvNtCs9ZsrUc3T9pb_15neuralnote_core5testss_37recents_record_list_roundtrip_and_cap
FN:629,_RNvNtCs9ZsrUc3T9pb_15neuralnote_core5testss_37search_clip_window_clamps_at_line_end
FN:891,_RNvNtCs9ZsrUc3T9pb_15neuralnote_core5testss_38graph_resolves_relative_markdown_links
FN:660,_RNvNtCs9ZsrUc3T9pb_15neuralnote_core5testss_38search_caps_total_matches_across_files
FN:764,_RNvNtCs9ZsrUc3T9pb_15neuralnote_core5testss_39search_skips_unreadable_files_not_fatal
FN:697,_RNvNtCs9ZsrUc3T9pb_15neuralnote_core5testss_39search_title_match_counts_as_name_match
FN:551,_RNvNtCs9ZsrUc3T9pb_15neuralnote_core5testss_40search_matches_across_unicode_case_folds
FN:225,_RNvNtCs9ZsrUc3T9pb_15neuralnote_core5testss_41concurrent_writes_same_note_leave_no_temp
FN:978,_RNvNtCs9ZsrUc3T9pb_15neuralnote_core5testss_41graph_dedupes_edges_on_the_unordered_pair
FN:928,_RNvNtCs9ZsrUc3T9pb_15neuralnote_core5testss_41graph_unclosed_fence_masks_to_end_of_note
FN:359,_RNvNtCs9ZsrUc3T9pb_15neuralnote_core5testss_41serde_yaml_dependency_rejects_alias_bombs
FN:468,_RNvNtCs9ZsrUc3T9pb_15neuralnote_core5testss_42frontmatter_after_utf8_bom_is_still_parsed
FN:616,_RNvNtCs9ZsrUc3T9pb_15neuralnote_core5testss_42search_clips_long_lines_on_char_boundaries
FN:451,_RNvNtCs9ZsrUc3T9pb_15neuralnote_core5testss_43frontmatter_just_under_the_cap_still_parses
FN:433,_RNvNtCs9ZsrUc3T9pb_15neuralnote_core5testss_43frontmatter_too_large_is_refused_not_parsed
FN:1004,_RNvNtCs9ZsrUc3T9pb_15neuralnote_core5testss_43graph_bridge_flags_cross_cluster_links_only
FN:1058,_RNvNtCs9ZsrUc3T9pb_15neuralnote_core5testss_43graph_resolves_extensionless_markdown_links
FN:65,_RNvNtCs9ZsrUc3T9pb_15neuralnote_core5testss_43tree_hides_dotfiles_and_sorts_folders_first
FN:325,_RNvNtCs9ZsrUc3T9pb_15neuralnote_core5testss_44core_error_displays_all_variants_and_from_io
FN:857,_RNvNtCs9ZsrUc3T9pb_15neuralnote_core5testss_44graph_extracts_all_wikilink_forms_and_embeds
FN:913,_RNvNtCs9ZsrUc3T9pb_15neuralnote_core5testss_44graph_ignores_links_in_code_blocks_and_spans
FN:781,_RNvNtCs9ZsrUc3T9pb_15neuralnote_core5testss_44search_clips_straddling_range_at_window_edge
FN:128,_RNvNtCs9ZsrUc3T9pb_15neuralnote_core5testss_45create_note_appends_md_and_refuses_duplicates
FN:987,_RNvNtCs9ZsrUc3T9pb_15neuralnote_core5testss_45graph_includes_orphans_with_cluster_and_title
FN:824,_RNvNtCs9ZsrUc3T9pb_15neuralnote_core5testss_45search_reports_all_occurrences_on_short_lines
FN:403,_RNvNtCs9ZsrUc3T9pb_15neuralnote_core5testss_46frontmatter_accepts_scalars_resembling_anchors
FN:112,_RNvNtCs9ZsrUc3T9pb_15neuralnote_core5testss_46write_detects_external_change_via_content_hash
FN:56,_RNvNtCs9ZsrUc3T9pb_15neuralnote_core5testss_47validate_name_rejects_separators_and_navigation
FN:529,_RNvNtCs9ZsrUc3T9pb_15neuralnote_core5testss_48search_empty_or_whitespace_query_returns_nothing
FN:681,_RNvNtCs9ZsrUc3T9pb_15neuralnote_core5testss_48search_ranks_name_matches_before_content_matches
FN:388,_RNvNtCs9ZsrUc3T9pb_15neuralnote_core5testss_49frontmatter_rejects_alias_bomb_and_preserves_body
FN:1105,_RNvNtCs9ZsrUc3T9pb_15neuralnote_core5testss_49graph_dedupes_normalized_md_targets_within_a_note
FN:873,_RNvNtCs9ZsrUc3T9pb_15neuralnote_core5testss_49graph_resolves_path_qualified_wikilinks_by_suffix
FN:643,_RNvNtCs9ZsrUc3T9pb_15neuralnote_core5testss_49search_caps_matches_per_file_and_flags_truncation
FN:486,_RNvNtCs9ZsrUc3T9pb_15neuralnote_core5testss_50frontmatter_must_be_a_mapping_not_a_list_or_scalar
FN:157,_RNvNtCs9ZsrUc3T9pb_15neuralnote_core5testss_50non_utf8_markdown_note_is_shown_lossily_not_hidden
FN:565,_RNvNtCs9ZsrUc3T9pb_15neuralnote_core5testss_50search_offsets_survive_fold_expansion_before_match
FN:1070,_RNvNtCs9ZsrUc3T9pb_15neuralnote_core5testss_51graph_fence_closes_only_on_matching_char_and_length
FN:502,_RNvNtCs9ZsrUc3T9pb_15neuralnote_core5testss_52malformed_yaml_frontmatter_surfaces_error_keeps_body
FN:800,_RNvNtCs9ZsrUc3T9pb_15neuralnote_core5testss_52search_query_wider_than_window_keeps_a_visible_range
FN:89,_RNvNtCs9ZsrUc3T9pb_15neuralnote_core5testss_53unterminated_frontmatter_surfaces_error_keeps_content
FN:1120,_RNvNtCs9ZsrUc3T9pb_15neuralnote_core5testss_56graph_case_colliding_rel_paths_resolve_deterministically
FN:588,_RNvNtCs9ZsrUc3T9pb_15neuralnote_core5testss_56search_ranges_are_scalar_offsets_with_emoji_before_match
FN:950,_RNvNtCs9ZsrUc3T9pb_15neuralnote_core5testss_60graph_ambiguous_wikilink_prefers_shortest_then_lexicographic
FN:939,_RNvNtCs9ZsrUc3T9pb_15neuralnote_core5testss_61graph_wikilinks_resolve_case_insensitively_with_or_without_md
FN:235,_RNCNCNvNtCs9ZsrUc3T9pb_15neuralnote_core5testss_41concurrent_writes_same_note_leave_no_temp00B7_
FN:853,_RNCNvNtCs9ZsrUc3T9pb_15neuralnote_core5tests4edge0B5_
FN:732,_RNCNvNtCs9ZsrUc3T9pb_15neuralnote_core5testss_31search_skips_hidden_directories0B5_
FN:721,_RNCNvNtCs9ZsrUc3T9pb_15neuralnote_core5testss_32search_only_scans_markdown_files0B5_
FN:1053,_RNCNvNtCs9ZsrUc3T9pb_15neuralnote_core5testss_36graph_keeps_node_for_unreadable_note0B5_
FN:298,_RNCNvNtCs9ZsrUc3T9pb_15neuralnote_core5testss_37recents_record_list_roundtrip_and_cap0B5_
FN:665,_RNCNvNtCs9ZsrUc3T9pb_15neuralnote_core5testss_38search_caps_total_matches_across_files0B5_
FN:672,_RNCNvNtCs9ZsrUc3T9pb_15neuralnote_core5testss_38search_caps_total_matches_across_filess_0B5_
FN:775,_RNCNvNtCs9ZsrUc3T9pb_15neuralnote_core5testss_39search_skips_unreadable_files_not_fatal0B5_
FN:233,_RNCNvNtCs9ZsrUc3T9pb_15neuralnote_core5testss_41concurrent_writes_same_note_leave_no_temp0B5_
FN:244,_RNCNvNtCs9ZsrUc3T9pb_15neuralnote_core5testss_41concurrent_writes_same_note_leave_no_temps0_0B5_
FN:243,_RNCNvNtCs9ZsrUc3T9pb_15neuralnote_core5testss_41concurrent_writes_same_note_leave_no_temps_0B5_
FN:68,_RNCNvNtCs9ZsrUc3T9pb_15neuralnote_core5testss_43tree_hides_dotfiles_and_sorts_folders_first0B5_
FN:995,_RNCNvNtCs9ZsrUc3T9pb_15neuralnote_core5testss_45graph_includes_orphans_with_cluster_and_title0B5_
FN:998,_RNCNvNtCs9ZsrUc3T9pb_15neuralnote_core5testss_45graph_includes_orphans_with_cluster_and_titles_0B5_
FN:688,_RNCNvNtCs9ZsrUc3T9pb_15neuralnote_core5testss_48search_ranks_name_matches_before_content_matches0B5_
FN:645,_RNCNvNtCs9ZsrUc3T9pb_15neuralnote_core5testss_49search_caps_matches_per_file_and_flags_truncation0B5_
FN:652,_RNCNvNtCs9ZsrUc3T9pb_15neuralnote_core5testss_49search_caps_matches_per_file_and_flags_truncations_0B5_
FNDA:3,_RNvNtCs9ZsrUc3T9pb_15neuralnote_core5tests10alias_bomb
FNDA:12,_RNvNtCs9ZsrUc3T9pb_15neuralnote_core5tests11slice_chars
FNDA:19,_RNvNtCs9ZsrUc3T9pb_15neuralnote_core5tests4edge
FNDA:4,_RNvNtCs9ZsrUc3T9pb_15neuralnote_core5tests5vault
FNDA:1,_RNvNtCs9ZsrUc3T9pb_15neuralnote_core5testss_18search_matches_cjk
FNDA:1,_RNvNtCs9ZsrUc3T9pb_15neuralnote_core5testss_24allows_path_inside_vault
FNDA:1,_RNvNtCs9ZsrUc3T9pb_15neuralnote_core5testss_26reads_frontmatter_and_body
FNDA:1,_RNvNtCs9ZsrUc3T9pb_15neuralnote_core5testss_27case_only_rename_is_allowed
FNDA:1,_RNvNtCs9ZsrUc3T9pb_15neuralnote_core5testss_27crash_safe_write_roundtrips
FNDA:1,_RNvNtCs9ZsrUc3T9pb_15neuralnote_core5testss_29graph_of_empty_vault_is_empty
FNDA:1,_RNvNtCs9ZsrUc3T9pb_15neuralnote_core5testss_29reads_utf8_note_as_non_binary
FNDA:1,_RNvNtCs9ZsrUc3T9pb_15neuralnote_core5testss_29search_caps_very_long_queries
FNDA:1,_RNvNtCs9ZsrUc3T9pb_15neuralnote_core5testss_30cannot_move_folder_into_itself
FNDA:1,_RNvNtCs9ZsrUc3T9pb_15neuralnote_core5testss_30rejects_path_escape_via_dotdot
FNDA:1,_RNvNtCs9ZsrUc3T9pb_15neuralnote_core5testss_30search_folds_greek_final_sigma
FNDA:1,_RNvNtCs9ZsrUc3T9pb_15neuralnote_core5testss_30search_handles_combining_marks
FNDA:1,_RNvNtCs9ZsrUc3T9pb_15neuralnote_core5testss_31create_and_open_vault_roundtrip
FNDA:1,_RNvNtCs9ZsrUc3T9pb_15neuralnote_core5testss_31search_skips_hidden_directories
FNDA:1,_RNvNtCs9ZsrUc3T9pb_15neuralnote_core5testss_32search_includes_frontmatter_text
FNDA:1,_RNvNtCs9ZsrUc3T9pb_15neuralnote_core5testss_32search_is_ascii_case_insensitive
FNDA:1,_RNvNtCs9ZsrUc3T9pb_15neuralnote_core5testss_32search_only_scans_markdown_files
FNDA:1,_RNvNtCs9ZsrUc3T9pb_15neuralnote_core5testss_33graph_title_agrees_with_read_note
FNDA:1,_RNvNtCs9ZsrUc3T9pb_15neuralnote_core5testss_34case_only_rename_handles_non_ascii
FNDA:1,_RNvNtCs9ZsrUc3T9pb_15neuralnote_core5testss_34read_note_flags_non_utf8_as_binary
FNDA:1,_RNvNtCs9ZsrUc3T9pb_15neuralnote_core5testss_35search_reads_non_utf8_notes_lossily
FNDA:1,_RNvNtCs9ZsrUc3T9pb_15neuralnote_core5testss_36graph_inline_span_masks_across_lines
FNDA:1,_RNvNtCs9ZsrUc3T9pb_15neuralnote_core5testss_36graph_keeps_node_for_unreadable_note
FNDA:1,_RNvNtCs9ZsrUc3T9pb_15neuralnote_core5testss_36open_vault_rejects_missing_and_files
FNDA:1,_RNvNtCs9ZsrUc3T9pb_15neuralnote_core5testss_37create_folder_move_and_rename_succeed
FNDA:1,_RNvNtCs9ZsrUc3T9pb_15neuralnote_core5testss_37graph_skips_unresolved_and_self_links
FNDA:1,_RNvNtCs9ZsrUc3T9pb_15neuralnote_core5testss_37lossy_note_can_be_saved_not_just_read
FNDA:1,_RNvNtCs9ZsrUc3T9pb_15neuralnote_core5testss_37recents_record_list_roundtrip_and_cap
FNDA:1,_RNvNtCs9ZsrUc3T9pb_15neuralnote_core5testss_37search_clip_window_clamps_at_line_end
FNDA:1,_RNvNtCs9ZsrUc3T9pb_15neuralnote_core5testss_38graph_resolves_relative_markdown_links
FNDA:1,_RNvNtCs9ZsrUc3T9pb_15neuralnote_core5testss_38search_caps_total_matches_across_files
FNDA:1,_RNvNtCs9ZsrUc3T9pb_15neuralnote_core5testss_39search_skips_unreadable_files_not_fatal
FNDA:1,_RNvNtCs9ZsrUc3T9pb_15neuralnote_core5testss_39search_title_match_counts_as_name_match
FNDA:1,_RNvNtCs9ZsrUc3T9pb_15neuralnote_core5testss_40search_matches_across_unicode_case_folds
FNDA:1,_RNvNtCs9ZsrUc3T9pb_15neuralnote_core5testss_41concurrent_writes_same_note_leave_no_temp
FNDA:1,_RNvNtCs9ZsrUc3T9pb_15neuralnote_core5testss_41graph_dedupes_edges_on_the_unordered_pair
FNDA:1,_RNvNtCs9ZsrUc3T9pb_15neuralnote_core5testss_41graph_unclosed_fence_masks_to_end_of_note
FNDA:1,_RNvNtCs9ZsrUc3T9pb_15neuralnote_core5testss_41serde_yaml_dependency_rejects_alias_bombs
FNDA:1,_RNvNtCs9ZsrUc3T9pb_15neuralnote_core5testss_42frontmatter_after_utf8_bom_is_still_parsed
FNDA:1,_RNvNtCs9ZsrUc3T9pb_15neuralnote_core5testss_42search_clips_long_lines_on_char_boundaries
FNDA:1,_RNvNtCs9ZsrUc3T9pb_15neuralnote_core5testss_43frontmatter_just_under_the_cap_still_parses
FNDA:1,_RNvNtCs9ZsrUc3T9pb_15neuralnote_core5testss_43frontmatter_too_large_is_refused_not_parsed
FNDA:1,_RNvNtCs9ZsrUc3T9pb_15neuralnote_core5testss_43graph_bridge_flags_cross_cluster_links_only
FNDA:1,_RNvNtCs9ZsrUc3T9pb_15neuralnote_core5testss_43graph_resolves_extensionless_markdown_links
FNDA:1,_RNvNtCs9ZsrUc3T9pb_15neuralnote_core5testss_43tree_hides_dotfiles_and_sorts_folders_first
FNDA:1,_RNvNtCs9ZsrUc3T9pb_15neuralnote_core5testss_44core_error_displays_all_variants_and_from_io
FNDA:1,_RNvNtCs9ZsrUc3T9pb_15neuralnote_core5testss_44graph_extracts_all_wikilink_forms_and_embeds
FNDA:1,_RNvNtCs9ZsrUc3T9pb_15neuralnote_core5testss_44graph_ignores_links_in_code_blocks_and_spans
FNDA:1,_RNvNtCs9ZsrUc3T9pb_15neuralnote_core5testss_44search_clips_straddling_range_at_window_edge
FNDA:1,_RNvNtCs9ZsrUc3T9pb_15neuralnote_core5testss_45create_note_appends_md_and_refuses_duplicates
FNDA:1,_RNvNtCs9ZsrUc3T9pb_15neuralnote_core5testss_45graph_includes_orphans_with_cluster_and_title
FNDA:1,_RNvNtCs9ZsrUc3T9pb_15neuralnote_core5testss_45search_reports_all_occurrences_on_short_lines
FNDA:1,_RNvNtCs9ZsrUc3T9pb_15neuralnote_core5testss_46frontmatter_accepts_scalars_resembling_anchors
FNDA:1,_RNvNtCs9ZsrUc3T9pb_15neuralnote_core5testss_46write_detects_external_change_via_content_hash
FNDA:1,_RNvNtCs9ZsrUc3T9pb_15neuralnote_core5testss_47validate_name_rejects_separators_and_navigation
FNDA:1,_RNvNtCs9ZsrUc3T9pb_15neuralnote_core5testss_48search_empty_or_whitespace_query_returns_nothing
FNDA:1,_RNvNtCs9ZsrUc3T9pb_15neuralnote_core5testss_48search_ranks_name_matches_before_content_matches
FNDA:1,_RNvNtCs9ZsrUc3T9pb_15neuralnote_core5testss_49frontmatter_rejects_alias_bomb_and_preserves_body
FNDA:1,_RNvNtCs9ZsrUc3T9pb_15neuralnote_core5testss_49graph_dedupes_normalized_md_targets_within_a_note
FNDA:1,_RNvNtCs9ZsrUc3T9pb_15neuralnote_core5testss_49graph_resolves_path_qualified_wikilinks_by_suffix
FNDA:1,_RNvNtCs9ZsrUc3T9pb_15neuralnote_core5testss_49search_caps_matches_per_file_and_flags_truncation
FNDA:1,_RNvNtCs9ZsrUc3T9pb_15neuralnote_core5testss_50frontmatter_must_be_a_mapping_not_a_list_or_scalar
FNDA:1,_RNvNtCs9ZsrUc3T9pb_15neuralnote_core5testss_50non_utf8_markdown_note_is_shown_lossily_not_hidden
FNDA:1,_RNvNtCs9ZsrUc3T9pb_15neuralnote_core5testss_50search_offsets_survive_fold_expansion_before_match
FNDA:1,_RNvNtCs9ZsrUc3T9pb_15neuralnote_core5testss_51graph_fence_closes_only_on_matching_char_and_length
FNDA:1,_RNvNtCs9ZsrUc3T9pb_15neuralnote_core5testss_52malformed_yaml_frontmatter_surfaces_error_keeps_body
FNDA:1,_RNvNtCs9ZsrUc3T9pb_15neuralnote_core5testss_52search_query_wider_than_window_keeps_a_visible_range
FNDA:1,_RNvNtCs9ZsrUc3T9pb_15neuralnote_core5testss_53unterminated_frontmatter_surfaces_error_keeps_content
FNDA:1,_RNvNtCs9ZsrUc3T9pb_15neuralnote_core5testss_56graph_case_colliding_rel_paths_resolve_deterministically
FNDA:1,_RNvNtCs9ZsrUc3T9pb_15neuralnote_core5testss_56search_ranges_are_scalar_offsets_with_emoji_before_match
FNDA:1,_RNvNtCs9ZsrUc3T9pb_15neuralnote_core5testss_60graph_ambiguous_wikilink_prefers_shortest_then_lexicographic
FNDA:1,_RNvNtCs9ZsrUc3T9pb_15neuralnote_core5testss_61graph_wikilinks_resolve_case_insensitively_with_or_without_md
FNDA:8,_RNCNCNvNtCs9ZsrUc3T9pb_15neuralnote_core5testss_41concurrent_writes_same_note_leave_no_temp00B7_
FNDA:25,_RNCNvNtCs9ZsrUc3T9pb_15neuralnote_core5tests4edge0B5_
FNDA:1,_RNCNvNtCs9ZsrUc3T9pb_15neuralnote_core5testss_31search_skips_hidden_directories0B5_
FNDA:1,_RNCNvNtCs9ZsrUc3T9pb_15neuralnote_core5testss_32search_only_scans_markdown_files0B5_
FNDA:1,_RNCNvNtCs9ZsrUc3T9pb_15neuralnote_core5testss_36graph_keeps_node_for_unreadable_note0B5_
FNDA:12,_RNCNvNtCs9ZsrUc3T9pb_15neuralnote_core5testss_37recents_record_list_roundtrip_and_cap0B5_
FNDA:225,_RNCNvNtCs9ZsrUc3T9pb_15neuralnote_core5testss_38search_caps_total_matches_across_files0B5_
FNDA:6,_RNCNvNtCs9ZsrUc3T9pb_15neuralnote_core5testss_38search_caps_total_matches_across_filess_0B5_
FNDA:1,_RNCNvNtCs9ZsrUc3T9pb_15neuralnote_core5testss_39search_skips_unreadable_files_not_fatal0B5_
FNDA:8,_RNCNvNtCs9ZsrUc3T9pb_15neuralnote_core5testss_41concurrent_writes_same_note_leave_no_temp0B5_
FNDA:1,_RNCNvNtCs9ZsrUc3T9pb_15neuralnote_core5testss_41concurrent_writes_same_note_leave_no_temps0_0B5_
FNDA:1,_RNCNvNtCs9ZsrUc3T9pb_15neuralnote_core5testss_41concurrent_writes_same_note_leave_no_temps_0B5_
FNDA:1,_RNCNvNtCs9ZsrUc3T9pb_15neuralnote_core5testss_43tree_hides_dotfiles_and_sorts_folders_first0B5_
FNDA:1,_RNCNvNtCs9ZsrUc3T9pb_15neuralnote_core5testss_45graph_includes_orphans_with_cluster_and_title0B5_
FNDA:2,_RNCNvNtCs9ZsrUc3T9pb_15neuralnote_core5testss_45graph_includes_orphans_with_cluster_and_titles_0B5_
FNDA:2,_RNCNvNtCs9ZsrUc3T9pb_15neuralnote_core5testss_48search_ranks_name_matches_before_content_matches0B5_
FNDA:60,_RNCNvNtCs9ZsrUc3T9pb_15neuralnote_core5testss_49search_caps_matches_per_file_and_flags_truncation0B5_
FNDA:50,_RNCNvNtCs9ZsrUc3T9pb_15neuralnote_core5testss_49search_caps_matches_per_file_and_flags_truncations_0B5_
FNF:94
FNH:94
DA:30,4
DA:31,4
DA:32,4
DA:33,4
DA:34,4
DA:35,4
DA:36,4
DA:39,1
DA:40,1
DA:41,1
DA:42,1
DA:43,1
DA:46,1
DA:49,1
DA:50,1
DA:51,1
DA:52,1
DA:53,1
DA:56,1
DA:57,1
DA:58,1
DA:59,1
DA:60,1
DA:61,1
DA:62,1
DA:65,1
DA:66,1
DA:67,1
DA:68,1
DA:69,1
DA:70,1
DA:73,1
DA:74,1
DA:75,1
DA:76,1
DA:77,1
DA:80,1
DA:81,1
DA:82,1
DA:83,1
DA:84,1
DA:85,1
DA:86,1
DA:89,1
DA:90,1
DA:91,1
DA:92,1
DA:93,1
DA:94,1
DA:95,1
DA:96,1
DA:99,1
DA:100,1
DA:101,1
DA:102,1
DA:103,1
DA:104,1
DA:105,1
DA:106,1
DA:108,1
DA:109,1
DA:112,1
DA:113,1
DA:114,1
DA:115,1
DA:116,1
DA:118,1
DA:119,1
DA:120,1
DA:122,1
DA:124,1
DA:125,1
DA:128,1
DA:129,1
DA:130,1
DA:131,1
DA:132,1
DA:133,1
DA:136,1
DA:137,1
DA:138,1
DA:139,1
DA:140,1
DA:141,1
DA:142,1
DA:143,1
DA:146,1
DA:148,1
DA:149,1
DA:150,1
DA:151,1
DA:152,1
DA:153,1
DA:154,1
DA:157,1
DA:161,1
DA:162,1
DA:164,1
DA:165,1
DA:166,1
DA:167,1
DA:168,1
DA:171,1
DA:172,1
DA:173,1
DA:176,1
DA:180,1
DA:181,1
DA:182,1
DA:183,1
DA:184,1
DA:186,1
DA:187,1
DA:188,1
DA:189,1
DA:190,1
DA:193,1
DA:194,1
DA:195,1
DA:196,1
DA:197,1
DA:198,1
DA:199,1
DA:200,1
DA:203,1
DA:205,1
DA:206,1
DA:207,1
DA:208,1
DA:209,1
DA:210,1
DA:213,1
DA:217,1
DA:218,1
DA:219,1
DA:220,1
DA:221,1
DA:222,1
DA:225,1
DA:228,1
DA:229,1
DA:230,1
DA:231,1
DA:232,1
DA:233,8
DA:234,8
DA:235,8
DA:236,8
DA:237,1
DA:238,8
DA:239,8
DA:240,8
DA:241,1
DA:242,1
DA:243,1
DA:244,1
DA:245,1
DA:246,1
DA:247,1
DA:248,1
DA:251,1
DA:252,1
DA:253,1
DA:254,1
DA:255,1
DA:257,1
DA:258,1
DA:262,1
DA:263,1
DA:264,1
DA:265,1
DA:268,1
DA:269,1
DA:270,1
DA:271,1
DA:274,1
DA:275,1
DA:276,1
DA:277,1
DA:280,1
DA:283,1
DA:284,1
DA:285,15
DA:286,15
DA:287,15
DA:288,15
DA:289,15
DA:290,15
DA:291,15
DA:292,15
DA:293,15
DA:294,15
DA:295,15
DA:296,15
DA:297,1
DA:298,12
DA:299,1
DA:300,1
DA:301,1
DA:303,1
DA:304,1
DA:305,1
DA:308,1
DA:309,1
DA:310,1
DA:311,1
DA:312,1
DA:313,1
DA:314,1
DA:315,1
DA:316,1
DA:317,1
DA:318,1
DA:319,1
DA:320,1
DA:321,1
DA:322,1
DA:325,1
DA:326,7
DA:327,1
DA:328,1
DA:329,1
DA:330,1
DA:331,1
DA:332,1
DA:333,1
DA:334,1
DA:335,7
DA:337,1
DA:338,1
DA:339,1
DA:340,1
DA:341,1
DA:347,3
DA:348,3
DA:349,3
DA:350,17
DA:351,17
DA:352,17
DA:353,17
DA:354,3
DA:355,3
DA:356,3
DA:359,1
DA:366,2
DA:367,2
DA:368,2
DA:369,2
DA:375,1
DA:376,1
DA:377,1
DA:378,1
DA:382,1
DA:383,1
DA:384,1
DA:385,1
DA:388,1
DA:392,1
DA:393,1
DA:394,1
DA:395,1
DA:396,1
DA:397,1
DA:398,1
DA:399,1
DA:400,1
DA:403,1
DA:408,1
DA:409,1
DA:410,1
DA:411,1
DA:412,1
DA:413,1
DA:414,1
DA:415,1
DA:416,1
DA:417,1
DA:418,1
DA:419,1
DA:420,1
DA:421,1
DA:422,1
DA:423,1
DA:424,1
DA:425,1
DA:429,1
DA:430,1
DA:433,1
DA:436,1
DA:437,1
DA:438,1
DA:439,1
DA:440,1
DA:441,1
DA:442,1
DA:443,1
DA:444,1
DA:445,1
DA:446,1
DA:447,1
DA:448,1
DA:451,1
DA:454,1
DA:455,1
DA:456,1
DA:457,1
DA:458,1
DA:459,1
DA:460,1
DA:464,1
DA:465,1
DA:468,1
DA:471,1
DA:472,1
DA:473,1
DA:474,1
DA:475,1
DA:476,1
DA:480,1
DA:481,1
DA:482,1
DA:483,1
DA:486,1
DA:489,1
DA:490,1
DA:491,1
DA:492,1
DA:493,1
DA:494,1
DA:495,1
DA:496,1
DA:497,1
DA:498,1
DA:499,1
DA:502,1
DA:503,1
DA:504,1
DA:505,1
DA:506,1
DA:507,1
DA:508,1
DA:509,1
DA:510,1
DA:511,1
DA:512,1
DA:513,1
DA:514,1
DA:521,12
DA:522,12
DA:523,12
DA:524,12
DA:525,12
DA:526,12
DA:529,1
DA:530,1
DA:531,3
DA:532,3
DA:533,3
DA:534,3
DA:536,1
DA:539,1
DA:540,1
DA:541,1
DA:542,1
DA:543,1
DA:544,1
DA:545,1
DA:546,1
DA:547,1
DA:548,1
DA:551,1
DA:555,1
DA:556,1
DA:557,1
DA:558,1
DA:559,1
DA:560,1
DA:561,1
DA:562,1
DA:565,1
DA:569,1
DA:570,1
DA:571,1
DA:572,1
DA:573,1
DA:574,1
DA:575,1
DA:578,1
DA:579,1
DA:580,1
DA:581,1
DA:582,1
DA:583,1
DA:584,1
DA:585,1
DA:588,1
DA:591,1
DA:592,1
DA:593,1
DA:594,1
DA:595,1
DA:596,1
DA:597,1
DA:600,1
DA:603,1
DA:604,1
DA:605,1
DA:606,1
DA:607,1
DA:608,1
DA:609,1
DA:610,1
DA:611,1
DA:612,1
DA:613,1
DA:616,1
DA:619,1
DA:620,1
DA:621,1
DA:622,1
DA:623,1
DA:624,1
DA:625,1
DA:626,1
DA:629,1
DA:632,1
DA:633,1
DA:634,1
DA:635,1
DA:636,1
DA:637,1
DA:638,1
DA:639,1
DA:640,1
DA:643,1
DA:644,1
DA:645,60
DA:646,1
DA:647,1
DA:648,1
DA:649,1
DA:651,1
DA:652,50
DA:653,1
DA:654,1
DA:655,1
DA:656,1
DA:657,1
DA:660,1
DA:663,1
DA:664,5
DA:665,225
DA:666,5
DA:670,1
DA:671,1
DA:672,6
DA:673,1
DA:674,1
DA:675,1
DA:676,1
DA:677,1
DA:678,1
DA:681,1
DA:684,1
DA:685,1
DA:686,1
DA:687,1
DA:688,2
DA:689,1
DA:690,1
DA:691,1
DA:692,1
DA:693,1
DA:694,1
DA:697,1
DA:698,1
DA:699,1
DA:700,1
DA:703,1
DA:704,1
DA:705,1
DA:706,1
DA:707,1
DA:710,1
DA:711,1
DA:712,1
DA:715,1
DA:716,1
DA:717,1
DA:718,1
DA:719,1
DA:720,1
DA:721,1
DA:722,1
DA:723,1
DA:726,1
DA:727,1
DA:728,1
DA:729,1
DA:730,1
DA:731,1
DA:732,1
DA:733,1
DA:734,1
DA:737,1
DA:740,1
DA:741,1
DA:742,1
DA:745,1
DA:746,1
DA:747,1
DA:748,1
DA:751,1
DA:754,1
DA:755,1
DA:756,1
DA:757,1
DA:758,1
DA:759,1
DA:760,1
DA:764,1
DA:766,1
DA:767,1
DA:768,1
DA:769,1
DA:770,1
DA:771,1
DA:773,1
DA:774,1
DA:775,1
DA:776,1
DA:777,1
DA:778,1
DA:781,1
DA:785,1
DA:786,1
DA:788,1
DA:789,1
DA:790,1
DA:792,1
DA:793,1
DA:794,1
DA:795,1
DA:796,1
DA:797,1
DA:800,1
DA:803,1
DA:804,1
DA:805,1
DA:806,1
DA:807,1
DA:808,1
DA:809,1
DA:810,1
DA:813,1
DA:816,1
DA:817,1
DA:818,1
DA:819,1
DA:820,1
DA:821,1
DA:824,1
DA:827,1
DA:828,1
DA:829,1
DA:830,1
DA:831,1
DA:834,1
DA:838,1
DA:839,1
DA:840,1
DA:841,1
DA:842,1
DA:843,1
DA:844,1
DA:850,19
DA:851,19
DA:852,19
DA:853,25
DA:854,19
DA:857,1
DA:858,1
DA:859,1
DA:860,1
DA:863,1
DA:864,1
DA:865,1
DA:866,1
DA:867,1
DA:868,1
DA:869,1
DA:870,1
DA:873,1
DA:877,1
DA:878,1
DA:879,1
DA:880,1
DA:881,1
DA:882,1
DA:883,1
DA:884,1
DA:885,1
DA:886,1
DA:887,1
DA:888,1
DA:891,1
DA:892,1
DA:893,1
DA:894,1
DA:895,1
DA:896,1
DA:897,1
DA:898,1
DA:903,1
DA:904,1
DA:905,1
DA:906,1
DA:907,1
DA:908,1
DA:909,1
DA:910,1
DA:913,1
DA:914,1
DA:915,1
DA:916,1
DA:917,1
DA:918,1
DA:921,1
DA:922,1
DA:923,1
DA:924,1
DA:925,1
DA:928,1
DA:929,1
DA:930,1
DA:931,1
DA:932,1
DA:933,1
DA:934,1
DA:935,1
DA:936,1
DA:939,1
DA:940,1
DA:941,1
DA:942,1
DA:943,1
DA:944,1
DA:945,1
DA:946,1
DA:947,1
DA:950,1
DA:951,1
DA:952,1
DA:953,1
DA:954,1
DA:955,1
DA:956,1
DA:957,1
DA:959,1
DA:960,1
DA:962,1
DA:963,1
DA:964,1
DA:965,1
DA:966,1
DA:969,1
DA:970,1
DA:971,1
DA:972,1
DA:973,1
DA:974,1
DA:975,1
DA:978,1
DA:979,1
DA:980,1
DA:981,1
DA:982,1
DA:983,1
DA:984,1
DA:987,1
DA:988,1
DA:989,1
DA:990,1
DA:991,1
DA:992,1
DA:993,1
DA:994,1
DA:995,1
DA:996,1
DA:997,1
DA:998,2
DA:999,1
DA:1000,1
DA:1001,1
DA:1004,1
DA:1005,1
DA:1006,1
DA:1007,1
DA:1008,1
DA:1009,1
DA:1010,1
DA:1011,1
DA:1012,1
DA:1013,1
DA:1014,1
DA:1017,1
DA:1018,1
DA:1019,1
DA:1020,1
DA:1021,1
DA:1022,1
DA:1023,1
DA:1026,1
DA:1027,1
DA:1028,1
DA:1029,1
DA:1030,1
DA:1031,1
DA:1032,1
DA:1033,1
DA:1037,1
DA:1041,1
DA:1042,1
DA:1043,1
DA:1044,1
DA:1045,1
DA:1046,1
DA:1048,1
DA:1049,1
DA:1050,1
DA:1051,1
DA:1052,1
DA:1053,1
DA:1054,1
DA:1055,1
DA:1058,1
DA:1061,1
DA:1062,1
DA:1063,1
DA:1064,1
DA:1065,1
DA:1066,1
DA:1067,1
DA:1070,1
DA:1073,1
DA:1074,1
DA:1075,1
DA:1076,1
DA:1077,1
DA:1078,1
DA:1081,1
DA:1082,1
DA:1083,1
DA:1084,1
DA:1085,1
DA:1088,1
DA:1091,1
DA:1092,1
DA:1093,1
DA:1094,1
DA:1095,1
DA:1098,1
DA:1099,1
DA:1100,1
DA:1101,1
DA:1102,1
DA:1105,1
DA:1108,1
DA:1109,1
DA:1110,1
DA:1111,1
DA:1114,1
DA:1115,1
DA:1116,1
DA:1117,1
DA:1120,1
DA:1126,1
DA:1127,1
DA:1128,1
DA:1129,1
DA:1130,1
DA:1132,1
DA:1133,1
DA:1136,1
DA:1137,1
DA:1140,1
DA:1141,1
BRF:0
BRH:0
LF:805
LH:805
end_of_record
SF:/Users/thomaspritchard/Documents/projects/NeuralNote/crates/neuralnote-core/src/links.rs
FN:318,_RINvNtCs9ZsrUc3T9pb_15neuralnote_core5links16extract_md_linksNCNvB2_15extract_targetss0_0EB4_
FN:303,_RINvNtCs9ZsrUc3T9pb_15neuralnote_core5links17extract_wikilinksNCNvB2_15extract_targetss_0EB4_
FN:420,_RNCNCNvNtCs9ZsrUc3T9pb_15neuralnote_core5links11resolve_rels_00B7_
FN:398,_RNCNCNvNtCs9ZsrUc3T9pb_15neuralnote_core5links16resolve_wikilink00B7_
FN:406,_RNCNCNvNtCs9ZsrUc3T9pb_15neuralnote_core5links16resolve_wikilinks_00B7_
FN:367,_RNCNvNtCs9ZsrUc3T9pb_15neuralnote_core5links10has_scheme0B5_
FN:134,_RNCNvNtCs9ZsrUc3T9pb_15neuralnote_core5links11build_links0B5_
FN:215,_RNCNvNtCs9ZsrUc3T9pb_15neuralnote_core5links11mask_fences0B5_
FN:416,_RNCNvNtCs9ZsrUc3T9pb_15neuralnote_core5links11resolve_rel0B5_
FN:420,_RNCNvNtCs9ZsrUc3T9pb_15neuralnote_core5links11resolve_rels_0B5_
FN:237,_RNCNvNtCs9ZsrUc3T9pb_15neuralnote_core5links12fence_marker0B5_
FN:82,_RNCNvNtCs9ZsrUc3T9pb_15neuralnote_core5links13collect_notes0B5_
FN:83,_RNCNvNtCs9ZsrUc3T9pb_15neuralnote_core5links13collect_notess_0B5_
FN:427,_RNCNvNtCs9ZsrUc3T9pb_15neuralnote_core5links14resolve_md_rel0B5_
FN:179,_RNCNvNtCs9ZsrUc3T9pb_15neuralnote_core5links15extract_targets0B5_
FN:185,_RNCNvNtCs9ZsrUc3T9pb_15neuralnote_core5links15extract_targetss0_0B5_
FN:184,_RNCNvNtCs9ZsrUc3T9pb_15neuralnote_core5links15extract_targetss_0B5_
FN:280,_RNCNvNtCs9ZsrUc3T9pb_15neuralnote_core5links16backtick_run_len0B5_
FN:394,_RNCNvNtCs9ZsrUc3T9pb_15neuralnote_core5links16resolve_wikilink0B5_
FN:406,_RNCNvNtCs9ZsrUc3T9pb_15neuralnote_core5links16resolve_wikilinks_0B5_
FN:165,_RNvNtCs9ZsrUc3T9pb_15neuralnote_core5links10cluster_of
FN:365,_RNvNtCs9ZsrUc3T9pb_15neuralnote_core5links10has_scheme
FN:133,_RNvNtCs9ZsrUc3T9pb_15neuralnote_core5links11build_links
FN:203,_RNvNtCs9ZsrUc3T9pb_15neuralnote_core5links11mask_fences
FN:414,_RNvNtCs9ZsrUc3T9pb_15neuralnote_core5links11resolve_rel
FN:231,_RNvNtCs9ZsrUc3T9pb_15neuralnote_core5links12fence_marker
FN:58,_RNvNtCs9ZsrUc3T9pb_15neuralnote_core5links13collect_notes
FN:426,_RNvNtCs9ZsrUc3T9pb_15neuralnote_core5links14resolve_md_rel
FN:120,_RNvNtCs9ZsrUc3T9pb_15neuralnote_core5links14resolve_target
FN:175,_RNvNtCs9ZsrUc3T9pb_15neuralnote_core5links15extract_targets
FN:29,_RNvNtCs9ZsrUc3T9pb_15neuralnote_core5links15read_link_graph
FN:279,_RNvNtCs9ZsrUc3T9pb_15neuralnote_core5links16backtick_run_len
FN:284,_RNvNtCs9ZsrUc3T9pb_15neuralnote_core5links16find_closing_run
FN:384,_RNvNtCs9ZsrUc3T9pb_15neuralnote_core5links16resolve_wikilink
FN:244,_RNvNtCs9ZsrUc3T9pb_15neuralnote_core5links17mask_inline_spans
FN:343,_RNvNtCs9ZsrUc3T9pb_15neuralnote_core5links19normalize_md_target
FN:273,_RNvNtCs9ZsrUc3T9pb_15neuralnote_core5links22blank_keeping_newlines
FN:195,_RNvNtCs9ZsrUc3T9pb_15neuralnote_core5links9mask_code
FNDA:49,_RINvNtCs9ZsrUc3T9pb_15neuralnote_core5links16extract_md_linksNCNvB2_15extract_targetss0_0EB4_
FNDA:49,_RINvNtCs9ZsrUc3T9pb_15neuralnote_core5links17extract_wikilinksNCNvB2_15extract_targetss_0EB4_
FNDA:1,_RNCNCNvNtCs9ZsrUc3T9pb_15neuralnote_core5links11resolve_rels_00B7_
FNDA:8,_RNCNCNvNtCs9ZsrUc3T9pb_15neuralnote_core5links16resolve_wikilink00B7_
FNDA:2,_RNCNCNvNtCs9ZsrUc3T9pb_15neuralnote_core5links16resolve_wikilinks_00B7_
FNDA:9,_RNCNvNtCs9ZsrUc3T9pb_15neuralnote_core5links10has_scheme0B5_
FNDA:49,_RNCNvNtCs9ZsrUc3T9pb_15neuralnote_core5links11build_links0B5_
FNDA:4,_RNCNvNtCs9ZsrUc3T9pb_15neuralnote_core5links11mask_fences0B5_
FNDA:8,_RNCNvNtCs9ZsrUc3T9pb_15neuralnote_core5links11resolve_rel0B5_
FNDA:1,_RNCNvNtCs9ZsrUc3T9pb_15neuralnote_core5links11resolve_rels_0B5_
FNDA:34,_RNCNvNtCs9ZsrUc3T9pb_15neuralnote_core5links12fence_marker0B5_
FNDA:49,_RNCNvNtCs9ZsrUc3T9pb_15neuralnote_core5links13collect_notes0B5_
FNDA:0,_RNCNvNtCs9ZsrUc3T9pb_15neuralnote_core5links13collect_notess_0B5_
FNDA:1,_RNCNvNtCs9ZsrUc3T9pb_15neuralnote_core5links14resolve_md_rel0B5_
FNDA:29,_RNCNvNtCs9ZsrUc3T9pb_15neuralnote_core5links15extract_targets0B5_
FNDA:10,_RNCNvNtCs9ZsrUc3T9pb_15neuralnote_core5links15extract_targetss0_0B5_
FNDA:23,_RNCNvNtCs9ZsrUc3T9pb_15neuralnote_core5links15extract_targetss_0B5_
FNDA:8,_RNCNvNtCs9ZsrUc3T9pb_15neuralnote_core5links16backtick_run_len0B5_
FNDA:4,_RNCNvNtCs9ZsrUc3T9pb_15neuralnote_core5links16resolve_wikilink0B5_
FNDA:3,_RNCNvNtCs9ZsrUc3T9pb_15neuralnote_core5links16resolve_wikilinks_0B5_
FNDA:87,_RNvNtCs9ZsrUc3T9pb_15neuralnote_core5links10cluster_of
FNDA:9,_RNvNtCs9ZsrUc3T9pb_15neuralnote_core5links10has_scheme
FNDA:19,_RNvNtCs9ZsrUc3T9pb_15neuralnote_core5links11build_links
FNDA:49,_RNvNtCs9ZsrUc3T9pb_15neuralnote_core5links11mask_fences
FNDA:9,_RNvNtCs9ZsrUc3T9pb_15neuralnote_core5links11resolve_rel
FNDA:37,_RNvNtCs9ZsrUc3T9pb_15neuralnote_core5links12fence_marker
FNDA:19,_RNvNtCs9ZsrUc3T9pb_15neuralnote_core5links13collect_notes
FNDA:5,_RNvNtCs9ZsrUc3T9pb_15neuralnote_core5links14resolve_md_rel
FNDA:24,_RNvNtCs9ZsrUc3T9pb_15neuralnote_core5links14resolve_target
FNDA:49,_RNvNtCs9ZsrUc3T9pb_15neuralnote_core5links15extract_targets
FNDA:19,_RNvNtCs9ZsrUc3T9pb_15neuralnote_core5links15read_link_graph
FNDA:4,_RNvNtCs9ZsrUc3T9pb_15neuralnote_core5links16backtick_run_len
FNDA:2,_RNvNtCs9ZsrUc3T9pb_15neuralnote_core5links16find_closing_run
FNDA:19,_RNvNtCs9ZsrUc3T9pb_15neuralnote_core5links16resolve_wikilink
FNDA:49,_RNvNtCs9ZsrUc3T9pb_15neuralnote_core5links17mask_inline_spans
FNDA:10,_RNvNtCs9ZsrUc3T9pb_15neuralnote_core5links19normalize_md_target
FNDA:12,_RNvNtCs9ZsrUc3T9pb_15neuralnote_core5links22blank_keeping_newlines
FNDA:49,_RNvNtCs9ZsrUc3T9pb_15neuralnote_core5links9mask_code
FNF:38
FNH:37
DA:29,19
DA:30,19
DA:31,19
DA:32,19
DA:33,19
DA:34,19
DA:35,19
DA:36,19
DA:37,19
DA:38,19
DA:39,19
DA:58,19
DA:59,19
DA:60,19
DA:61,19
DA:62,19
DA:63,19
DA:65,49
DA:69,49
DA:70,48
DA:71,1
DA:72,1
DA:76,1
DA:77,1
DA:80,49
DA:81,49
DA:82,49
DA:83,49
DA:84,49
DA:85,49
DA:86,49
DA:87,49
DA:88,49
DA:89,49
DA:90,49
DA:91,49
DA:92,49
DA:93,49
DA:94,49
DA:95,49
DA:96,49
DA:97,49
DA:98,49
DA:99,49
DA:100,49
DA:101,49
DA:102,49
DA:103,49
DA:104,49
DA:105,49
DA:109,19
DA:110,19
DA:111,19
DA:112,19
DA:113,19
DA:114,19
DA:115,19
DA:116,19
DA:120,24
DA:121,24
DA:122,24
DA:123,24
DA:124,24
DA:125,24
DA:126,19
DA:127,5
DA:129,24
DA:133,19
DA:134,49
DA:135,19
DA:136,19
DA:137,49
DA:138,49
DA:139,24
DA:140,1
DA:142,23
DA:143,1
DA:144,22
DA:145,22
DA:146,18
DA:148,4
DA:150,22
DA:151,3
DA:152,19
DA:153,19
DA:154,19
DA:155,19
DA:156,19
DA:157,19
DA:158,19
DA:161,19
DA:162,19
DA:165,87
DA:166,87
DA:167,25
DA:168,62
DA:170,87
DA:175,49
DA:176,49
DA:177,49
DA:178,49
DA:179,49
DA:180,29
DA:181,24
DA:182,24
DA:183,29
DA:184,49
DA:185,49
DA:186,10
DA:187,6
DA:188,6
DA:189,10
DA:190,49
DA:191,49
DA:195,49
DA:196,49
DA:197,49
DA:203,49
DA:204,49
DA:205,49
DA:206,49
DA:207,37
DA:208,37
DA:209,4
DA:210,4
DA:211,4
DA:213,25
DA:214,8
DA:215,8
DA:216,3
DA:217,5
DA:218,8
DA:221,37
DA:222,12
DA:223,25
DA:224,25
DA:225,25
DA:227,49
DA:228,49
DA:231,37
DA:232,37
DA:233,37
DA:234,37
DA:235,29
DA:236,8
DA:237,34
DA:238,8
DA:239,37
DA:244,49
DA:245,49
DA:246,49
DA:247,49
DA:248,622
DA:249,573
DA:250,571
DA:251,571
DA:252,571
DA:253,2
DA:254,2
DA:255,2
DA:256,2
DA:257,2
DA:258,26
DA:259,26
DA:261,2
DA:263,0
DA:264,0
DA:265,0
DA:266,0
DA:269,49
DA:270,49
DA:273,12
DA:274,71
DA:275,71
DA:277,12
DA:279,4
DA:280,8
DA:281,4
DA:284,2
DA:285,2
DA:286,24
DA:287,24
DA:288,2
DA:289,2
DA:290,2
DA:291,0
DA:292,0
DA:293,22
DA:294,22
DA:295,22
DA:297,0
DA:298,2
DA:303,49
DA:304,49
DA:305,72
DA:306,23
DA:307,23
DA:308,23
DA:309,23
DA:310,23
DA:311,23
DA:312,23
DA:314,49
DA:318,49
DA:319,49
DA:320,82
DA:321,33
DA:322,33
DA:323,23
DA:324,23
DA:325,10
DA:326,10
DA:327,0
DA:329,10
DA:330,10
DA:331,0
DA:332,0
DA:334,10
DA:335,10
DA:336,10
DA:338,49
DA:343,10
DA:344,10
DA:345,10
DA:346,3
DA:347,7
DA:348,7
DA:349,7
DA:350,7
DA:351,11
DA:352,11
DA:353,11
DA:354,9
DA:355,3
DA:357,6
DA:360,6
DA:361,10
DA:365,9
DA:366,9
DA:367,9
DA:368,4
DA:369,5
DA:370,20
DA:371,18
DA:372,2
DA:373,18
DA:374,1
DA:377,2
DA:378,9
DA:384,19
DA:385,19
DA:386,19
DA:387,19
DA:388,19
DA:389,19
DA:390,19
DA:391,1
DA:392,1
DA:393,1
DA:394,4
DA:395,4
DA:396,4
DA:397,4
DA:398,8
DA:399,4
DA:400,1
DA:402,18
DA:404,19
DA:405,19
DA:406,19
DA:407,19
DA:408,19
DA:414,9
DA:415,9
DA:416,8
DA:417,6
DA:418,1
DA:419,1
DA:420,1
DA:421,1
DA:422,9
DA:426,5
DA:427,5
DA:428,5
BRF:0
BRH:0
LF:302
LH:291
end_of_record
SF:/Users/thomaspritchard/Documents/projects/NeuralNote/crates/neuralnote-core/src/note.rs
FN:299,_RNvNtCs9ZsrUc3T9pb_15neuralnote_core4note10title_from
FN:127,_RNvNtCs9ZsrUc3T9pb_15neuralnote_core4note10write_note
FN:17,_RNvNtCs9ZsrUc3T9pb_15neuralnote_core4note12content_hash
FN:102,_RNvNtCs9ZsrUc3T9pb_15neuralnote_core4note12is_text_note
FN:178,_RNvNtCs9ZsrUc3T9pb_15neuralnote_core4note14title_and_body
FN:51,_RNvNtCs9ZsrUc3T9pb_15neuralnote_core4note16build_binary_doc
FN:194,_RNvNtCs9ZsrUc3T9pb_15neuralnote_core4note17parse_frontmatter
FN:114,_RNvNtCs9ZsrUc3T9pb_15neuralnote_core4note20read_to_string_lossy
FN:275,_RNvNtCs9ZsrUc3T9pb_15neuralnote_core4note23parse_frontmatter_block
FN:26,_RNvNtCs9ZsrUc3T9pb_15neuralnote_core4note9build_doc
FN:73,_RNvNtCs9ZsrUc3T9pb_15neuralnote_core4note9read_note
FN:300,_RNCNvNtCs9ZsrUc3T9pb_15neuralnote_core4note10title_from0B5_
FN:157,_RNCNvNtCs9ZsrUc3T9pb_15neuralnote_core4note10write_note0B5_
FN:161,_RNCNvNtCs9ZsrUc3T9pb_15neuralnote_core4note10write_notes0_0B5_
FN:158,_RNCNvNtCs9ZsrUc3T9pb_15neuralnote_core4note10write_notes_0B5_
FN:104,_RNCNvNtCs9ZsrUc3T9pb_15neuralnote_core4note12is_text_note0B5_
FN:106,_RNCNvNtCs9ZsrUc3T9pb_15neuralnote_core4note12is_text_notes0_0B5_
FN:105,_RNCNvNtCs9ZsrUc3T9pb_15neuralnote_core4note12is_text_notes_0B5_
FN:54,_RNCNvNtCs9ZsrUc3T9pb_15neuralnote_core4note16build_binary_doc0B5_
FN:30,_RNCNvNtCs9ZsrUc3T9pb_15neuralnote_core4note9build_doc0B5_
FNDA:105,_RNvNtCs9ZsrUc3T9pb_15neuralnote_core4note10title_from
FNDA:12,_RNvNtCs9ZsrUc3T9pb_15neuralnote_core4note10write_note
FNDA:29,_RNvNtCs9ZsrUc3T9pb_15neuralnote_core4note12content_hash
FNDA:3,_RNvNtCs9ZsrUc3T9pb_15neuralnote_core4note12is_text_note
FNDA:79,_RNvNtCs9ZsrUc3T9pb_15neuralnote_core4note14title_and_body
FNDA:1,_RNvNtCs9ZsrUc3T9pb_15neuralnote_core4note16build_binary_doc
FNDA:105,_RNvNtCs9ZsrUc3T9pb_15neuralnote_core4note17parse_frontmatter
FNDA:3,_RNvNtCs9ZsrUc3T9pb_15neuralnote_core4note20read_to_string_lossy
FNDA:12,_RNvNtCs9ZsrUc3T9pb_15neuralnote_core4note23parse_frontmatter_block
FNDA:26,_RNvNtCs9ZsrUc3T9pb_15neuralnote_core4note9build_doc
FNDA:16,_RNvNtCs9ZsrUc3T9pb_15neuralnote_core4note9read_note
FNDA:8,_RNCNvNtCs9ZsrUc3T9pb_15neuralnote_core4note10title_from0B5_
FNDA:11,_RNCNvNtCs9ZsrUc3T9pb_15neuralnote_core4note10write_note0B5_
FNDA:0,_RNCNvNtCs9ZsrUc3T9pb_15neuralnote_core4note10write_notes0_0B5_
FNDA:0,_RNCNvNtCs9ZsrUc3T9pb_15neuralnote_core4note10write_notes_0B5_
FNDA:3,_RNCNvNtCs9ZsrUc3T9pb_15neuralnote_core4note12is_text_note0B5_
FNDA:3,_RNCNvNtCs9ZsrUc3T9pb_15neuralnote_core4note12is_text_notes0_0B5_
FNDA:3,_RNCNvNtCs9ZsrUc3T9pb_15neuralnote_core4note12is_text_notes_0B5_
FNDA:1,_RNCNvNtCs9ZsrUc3T9pb_15neuralnote_core4note16build_binary_doc0B5_
FNDA:26,_RNCNvNtCs9ZsrUc3T9pb_15neuralnote_core4note9build_doc0B5_
FNF:20
FNH:18
DA:17,29
DA:18,29
DA:19,29
DA:20,29
DA:21,29
DA:26,26
DA:27,26
DA:28,26
DA:29,26
DA:30,26
DA:31,26
DA:32,26
DA:33,26
DA:34,26
DA:35,26
DA:36,26
DA:37,26
DA:38,26
DA:39,26
DA:40,26
DA:41,26
DA:42,26
DA:43,26
DA:44,26
DA:45,26
DA:46,26
DA:51,1
DA:52,1
DA:53,1
DA:54,1
DA:55,1
DA:56,1
DA:57,1
DA:58,1
DA:59,1
DA:60,1
DA:61,1
DA:62,1
DA:63,1
DA:64,1
DA:65,1
DA:66,1
DA:67,1
DA:68,1
DA:69,1
DA:73,16
DA:74,16
DA:75,16
DA:76,0
DA:77,16
DA:81,16
DA:82,16
DA:83,13
DA:84,3
DA:90,3
DA:91,2
DA:92,2
DA:94,1
DA:98,16
DA:102,3
DA:103,3
DA:104,3
DA:105,3
DA:106,3
DA:107,3
DA:114,3
DA:115,3
DA:116,3
DA:127,12
DA:128,12
DA:129,12
DA:130,12
DA:131,12
DA:132,12
DA:133,12
DA:134,12
DA:135,0
DA:136,12
DA:137,12
DA:144,3
DA:145,3
DA:146,1
DA:147,1
DA:148,1
DA:149,2
DA:150,9
DA:155,11
DA:156,11
DA:157,11
DA:158,11
DA:159,11
DA:160,11
DA:161,11
DA:162,11
DA:163,11
DA:164,11
DA:165,0
DA:166,0
DA:167,11
DA:168,11
DA:169,0
DA:170,0
DA:171,11
DA:172,11
DA:173,12
DA:178,79
DA:179,79
DA:180,79
DA:181,79
DA:182,79
DA:194,105
DA:198,105
DA:200,105
DA:201,105
DA:202,92
DA:203,92
DA:204,92
DA:205,92
DA:206,92
DA:207,92
DA:208,13
DA:211,13
DA:212,13
DA:213,13
DA:214,13
DA:215,44
DA:216,44
DA:217,44
DA:218,44
DA:219,12
DA:220,12
DA:221,32
DA:222,32
DA:225,13
DA:226,1
DA:227,1
DA:228,1
DA:229,1
DA:230,1
DA:231,1
DA:232,1
DA:233,1
DA:234,1
DA:235,12
DA:236,12
DA:237,12
DA:238,12
DA:239,12
DA:240,12
DA:241,12
DA:242,12
DA:243,12
DA:246,105
DA:275,12
DA:276,12
DA:277,1
DA:278,1
DA:279,1
DA:280,1
DA:281,1
DA:282,1
DA:283,1
DA:284,11
DA:285,11
DA:286,0
DA:289,8
DA:290,1
DA:291,1
DA:292,1
DA:293,1
DA:294,2
DA:296,12
DA:299,105
DA:300,105
DA:301,7
DA:302,7
DA:303,7
DA:304,0
DA:305,98
DA:306,416
DA:307,416
DA:308,416
DA:309,1
DA:310,1
DA:311,1
DA:312,0
DA:313,415
DA:315,97
DA:316,105
BRF:0
BRH:0
LF:198
LH:187
end_of_record
SF:/Users/thomaspritchard/Documents/projects/NeuralNote/crates/neuralnote-core/src/paths.rs
FN:83,_RNCNCNvNtCs9ZsrUc3T9pb_15neuralnote_core5paths8rel_path00B7_
FN:90,_RNCNCNvNtCs9ZsrUc3T9pb_15neuralnote_core5paths8rel_paths0_00B7_
FN:19,_RNCNvNtCs9ZsrUc3T9pb_15neuralnote_core5paths13ensure_within0B5_
FN:30,_RNCNvNtCs9ZsrUc3T9pb_15neuralnote_core5paths13ensure_withins0_0B5_
FN:33,_RNCNvNtCs9ZsrUc3T9pb_15neuralnote_core5paths13ensure_withins1_0B5_
FN:27,_RNCNvNtCs9ZsrUc3T9pb_15neuralnote_core5paths13ensure_withins_0B5_
FN:68,_RNCNvNtCs9ZsrUc3T9pb_15neuralnote_core5paths13validate_name0B5_
FN:81,_RNCNvNtCs9ZsrUc3T9pb_15neuralnote_core5paths8rel_path0B5_
FN:88,_RNCNvNtCs9ZsrUc3T9pb_15neuralnote_core5paths8rel_paths0_0B5_
FN:87,_RNCNvNtCs9ZsrUc3T9pb_15neuralnote_core5paths8rel_paths_0B5_
FN:16,_RNvNtCs9ZsrUc3T9pb_15neuralnote_core5paths13ensure_within
FN:47,_RNvNtCs9ZsrUc3T9pb_15neuralnote_core5paths13validate_name
FN:78,_RNvNtCs9ZsrUc3T9pb_15neuralnote_core5paths8rel_path
FNDA:122,_RNCNCNvNtCs9ZsrUc3T9pb_15neuralnote_core5paths8rel_path00B7_
FNDA:27,_RNCNCNvNtCs9ZsrUc3T9pb_15neuralnote_core5paths8rel_paths0_00B7_
FNDA:0,_RNCNvNtCs9ZsrUc3T9pb_15neuralnote_core5paths13ensure_within0B5_
FNDA:1,_RNCNvNtCs9ZsrUc3T9pb_15neuralnote_core5paths13ensure_withins0_0B5_
FNDA:0,_RNCNvNtCs9ZsrUc3T9pb_15neuralnote_core5paths13ensure_withins1_0B5_
FNDA:0,_RNCNvNtCs9ZsrUc3T9pb_15neuralnote_core5paths13ensure_withins_0B5_
FNDA:64,_RNCNvNtCs9ZsrUc3T9pb_15neuralnote_core5paths13validate_name0B5_
FNDA:103,_RNCNvNtCs9ZsrUc3T9pb_15neuralnote_core5paths8rel_path0B5_
FNDA:27,_RNCNvNtCs9ZsrUc3T9pb_15neuralnote_core5paths8rel_paths0_0B5_
FNDA:103,_RNCNvNtCs9ZsrUc3T9pb_15neuralnote_core5paths8rel_paths_0B5_
FNDA:49,_RNvNtCs9ZsrUc3T9pb_15neuralnote_core5paths13ensure_within
FNDA:16,_RNvNtCs9ZsrUc3T9pb_15neuralnote_core5paths13validate_name
FNDA:130,_RNvNtCs9ZsrUc3T9pb_15neuralnote_core5paths8rel_path
FNF:13
FNH:10
DA:16,49
DA:17,49
DA:18,49
DA:19,49
DA:21,49
DA:22,43
DA:25,6
DA:26,6
DA:27,6
DA:28,6
DA:29,6
DA:30,6
DA:31,5
DA:32,5
DA:33,5
DA:34,5
DA:38,48
DA:39,48
DA:41,0
DA:43,49
DA:47,16
DA:48,16
DA:49,16
DA:50,1
DA:51,15
DA:52,15
DA:53,1
DA:54,14
DA:58,14
DA:59,1
DA:60,1
DA:61,1
DA:62,13
DA:63,13
DA:64,2
DA:65,2
DA:66,2
DA:67,11
DA:68,64
DA:69,0
DA:70,0
DA:71,0
DA:72,11
DA:73,11
DA:74,16
DA:78,130
DA:79,130
DA:80,130
DA:81,130
DA:82,103
DA:83,122
DA:84,103
DA:85,103
DA:86,103
DA:87,130
DA:88,130
DA:89,27
DA:90,27
DA:91,27
DA:92,27
DA:93,130
BRF:0
BRH:0
LF:71
LH:64
end_of_record
SF:/Users/thomaspritchard/Documents/projects/NeuralNote/crates/neuralnote-core/src/recents.rs
FN:72,_RNvNtCs9ZsrUc3T9pb_15neuralnote_core7recents10now_millis
FN:14,_RNvNtCs9ZsrUc3T9pb_15neuralnote_core7recents18list_recent_vaults
FN:22,_RNvNtCs9ZsrUc3T9pb_15neuralnote_core7recents19record_recent_vault
FN:52,_RNvNtCs9ZsrUc3T9pb_15neuralnote_core7recents4load
FN:75,_RNCNvNtCs9ZsrUc3T9pb_15neuralnote_core7recents10now_millis0B5_
FN:16,_RNCNvNtCs9ZsrUc3T9pb_15neuralnote_core7recents18list_recent_vaults0B5_
FN:17,_RNCNvNtCs9ZsrUc3T9pb_15neuralnote_core7recents18list_recent_vaultss_0B5_
FN:25,_RNCNvNtCs9ZsrUc3T9pb_15neuralnote_core7recents19record_recent_vault0B5_
FN:36,_RNCNvNtCs9ZsrUc3T9pb_15neuralnote_core7recents19record_recent_vaults_0B5_
FN:58,_RNCNvNtCs9ZsrUc3T9pb_15neuralnote_core7recents4load0B5_
FNDA:15,_RNvNtCs9ZsrUc3T9pb_15neuralnote_core7recents10now_millis
FNDA:2,_RNvNtCs9ZsrUc3T9pb_15neuralnote_core7recents18list_recent_vaults
FNDA:15,_RNvNtCs9ZsrUc3T9pb_15neuralnote_core7recents19record_recent_vault
FNDA:17,_RNvNtCs9ZsrUc3T9pb_15neuralnote_core7recents4load
FNDA:15,_RNCNvNtCs9ZsrUc3T9pb_15neuralnote_core7recents10now_millis0B5_
FNDA:12,_RNCNvNtCs9ZsrUc3T9pb_15neuralnote_core7recents18list_recent_vaults0B5_
FNDA:22,_RNCNvNtCs9ZsrUc3T9pb_15neuralnote_core7recents18list_recent_vaultss_0B5_
FNDA:102,_RNCNvNtCs9ZsrUc3T9pb_15neuralnote_core7recents19record_recent_vault0B5_
FNDA:0,_RNCNvNtCs9ZsrUc3T9pb_15neuralnote_core7recents19record_recent_vaults_0B5_
FNDA:1,_RNCNvNtCs9ZsrUc3T9pb_15neuralnote_core7recents4load0B5_
FNF:10
FNH:9
DA:14,2
DA:15,2
DA:16,12
DA:17,22
DA:18,2
DA:19,2
DA:22,15
DA:23,15
DA:24,15
DA:25,102
DA:26,15
DA:28,15
DA:29,15
DA:30,15
DA:31,15
DA:32,15
DA:34,15
DA:35,15
DA:36,15
DA:39,15
DA:40,15
DA:41,15
DA:42,0
DA:43,0
DA:44,15
DA:45,15
DA:46,0
DA:47,0
DA:48,15
DA:49,15
DA:50,15
DA:52,17
DA:53,17
DA:54,17
DA:58,16
DA:59,1
DA:60,1
DA:61,1
DA:64,1
DA:65,0
DA:66,0
DA:67,0
DA:70,17
DA:72,15
DA:73,15
DA:74,15
DA:75,15
DA:76,15
DA:77,15
BRF:0
BRH:0
LF:55
LH:47
end_of_record
SF:/Users/thomaspritchard/Documents/projects/NeuralNote/crates/neuralnote-core/src/search.rs
FN:234,_RNCNvNtCs9ZsrUc3T9pb_15neuralnote_core6search10match_line0B5_
FN:205,_RNCNvNtCs9ZsrUc3T9pb_15neuralnote_core6search11occurrences0B5_
FN:257,_RNCNvNtCs9ZsrUc3T9pb_15neuralnote_core6search13build_snippet0B5_
FN:268,_RNCNvNtCs9ZsrUc3T9pb_15neuralnote_core6search13build_snippets_0B5_
FN:98,_RNCNvNtCs9ZsrUc3T9pb_15neuralnote_core6search14build_file_hit0B5_
FN:99,_RNCNvNtCs9ZsrUc3T9pb_15neuralnote_core6search14build_file_hits_0B5_
FN:158,_RNCNvNtCs9ZsrUc3T9pb_15neuralnote_core6search15contains_folded0B5_
FN:145,_RNCNvNtCs9ZsrUc3T9pb_15neuralnote_core6search9fold_char0B5_
FN:225,_RNvNtCs9ZsrUc3T9pb_15neuralnote_core6search10match_line
FN:200,_RNvNtCs9ZsrUc3T9pb_15neuralnote_core6search11occurrences
FN:125,_RNvNtCs9ZsrUc3T9pb_15neuralnote_core6search12scan_content
FN:33,_RNvNtCs9ZsrUc3T9pb_15neuralnote_core6search12search_vault
FN:250,_RNvNtCs9ZsrUc3T9pb_15neuralnote_core6search13build_snippet
FN:89,_RNvNtCs9ZsrUc3T9pb_15neuralnote_core6search14build_file_hit
FN:154,_RNvNtCs9ZsrUc3T9pb_15neuralnote_core6search15contains_folded
FN:149,_RNvNtCs9ZsrUc3T9pb_15neuralnote_core6search4fold
FN:144,_RNvNtCs9ZsrUc3T9pb_15neuralnote_core6search9fold_char
FN:174,_RNvNtCs9ZsrUc3T9pb_15neuralnote_core6search9fold_line
FNDA:326,_RNCNvNtCs9ZsrUc3T9pb_15neuralnote_core6search10match_line0B5_
FNDA:1151,_RNCNvNtCs9ZsrUc3T9pb_15neuralnote_core6search11occurrences0B5_
FNDA:320,_RNCNvNtCs9ZsrUc3T9pb_15neuralnote_core6search13build_snippet0B5_
FNDA:6,_RNCNvNtCs9ZsrUc3T9pb_15neuralnote_core6search13build_snippets_0B5_
FNDA:30,_RNCNvNtCs9ZsrUc3T9pb_15neuralnote_core6search14build_file_hit0B5_
FNDA:0,_RNCNvNtCs9ZsrUc3T9pb_15neuralnote_core6search14build_file_hits_0B5_
FNDA:8,_RNCNvNtCs9ZsrUc3T9pb_15neuralnote_core6search15contains_folded0B5_
FNDA:6643,_RNCNvNtCs9ZsrUc3T9pb_15neuralnote_core6search9fold_char0B5_
FNDA:330,_RNvNtCs9ZsrUc3T9pb_15neuralnote_core6search10match_line
FNDA:330,_RNvNtCs9ZsrUc3T9pb_15neuralnote_core6search11occurrences
FNDA:29,_RNvNtCs9ZsrUc3T9pb_15neuralnote_core6search12scan_content
FNDA:27,_RNvNtCs9ZsrUc3T9pb_15neuralnote_core6search12search_vault
FNDA:323,_RNvNtCs9ZsrUc3T9pb_15neuralnote_core6search13build_snippet
FNDA:30,_RNvNtCs9ZsrUc3T9pb_15neuralnote_core6search14build_file_hit
FNDA:58,_RNvNtCs9ZsrUc3T9pb_15neuralnote_core6search15contains_folded
FNDA:82,_RNvNtCs9ZsrUc3T9pb_15neuralnote_core6search4fold
FNDA:6639,_RNvNtCs9ZsrUc3T9pb_15neuralnote_core6search9fold_char
FNDA:330,_RNvNtCs9ZsrUc3T9pb_15neuralnote_core6search9fold_line
FNF:18
FNH:17
DA:33,27
DA:34,27
DA:35,27
DA:36,3
DA:37,3
DA:38,3
DA:39,3
DA:40,3
DA:41,24
DA:42,24
DA:43,24
DA:44,24
DA:46,24
DA:47,24
DA:48,24
DA:49,24
DA:50,24
DA:52,31
DA:55,31
DA:56,30
DA:57,1
DA:58,1
DA:59,1
DA:60,1
DA:63,30
DA:64,30
DA:65,30
DA:66,30
DA:67,30
DA:68,30
DA:69,3
DA:70,27
DA:71,27
DA:72,27
DA:75,24
DA:76,24
DA:77,24
DA:78,24
DA:79,24
DA:80,24
DA:81,27
DA:89,30
DA:90,30
DA:91,30
DA:92,30
DA:93,30
DA:94,30
DA:95,30
DA:96,30
DA:97,30
DA:98,30
DA:99,30
DA:100,30
DA:101,30
DA:103,30
DA:104,1
DA:106,29
DA:109,30
DA:110,0
DA:111,30
DA:112,30
DA:113,30
DA:114,30
DA:115,30
DA:116,30
DA:117,30
DA:118,30
DA:119,30
DA:120,30
DA:125,29
DA:126,29
DA:127,330
DA:128,330
DA:129,330
DA:130,7
DA:132,323
DA:133,2
DA:134,321
DA:135,321
DA:137,27
DA:138,29
DA:144,6639
DA:145,6643
DA:146,6639
DA:149,82
DA:150,82
DA:151,82
DA:154,58
DA:155,58
DA:156,58
DA:157,58
DA:158,58
DA:159,58
DA:174,330
DA:175,330
DA:176,330
DA:177,330
DA:178,5872
DA:179,5872
DA:180,5875
DA:181,5875
DA:182,5875
DA:183,5875
DA:185,330
DA:186,330
DA:187,330
DA:188,330
DA:189,330
DA:190,330
DA:191,330
DA:200,330
DA:201,330
DA:202,330
DA:203,330
DA:204,2410
DA:205,2081
DA:206,1
DA:207,2080
DA:208,2080
DA:209,326
DA:210,323
DA:211,323
DA:212,323
DA:213,326
DA:214,326
DA:215,1754
DA:216,1754
DA:217,1754
DA:219,330
DA:220,330
DA:225,330
DA:226,330
DA:227,330
DA:228,330
DA:229,7
DA:230,323
DA:232,323
DA:233,323
DA:234,326
DA:235,323
DA:236,323
DA:237,323
DA:238,323
DA:239,323
DA:240,323
DA:241,323
DA:242,330
DA:250,323
DA:251,323
DA:252,323
DA:253,323
DA:254,323
DA:255,323
DA:256,323
DA:257,320
DA:258,318
DA:259,5
DA:260,5
DA:261,5
DA:262,5
DA:263,5
DA:264,5
DA:265,5
DA:266,5
DA:267,5
DA:268,6
DA:269,6
DA:270,6
DA:271,6
DA:272,5
DA:273,5
DA:274,323
BRF:0
BRH:0
LF:180
LH:178
end_of_record
SF:/Users/thomaspritchard/Documents/projects/NeuralNote/crates/neuralnote-core/src/tree.rs
FN:87,_RNCNvNtCs9ZsrUc3T9pb_15neuralnote_core4tree8node_for0B5_
FN:104,_RNCNvNtCs9ZsrUc3T9pb_15neuralnote_core4tree8node_fors_0B5_
FN:54,_RNCNvNtCs9ZsrUc3T9pb_15neuralnote_core4tree8scan_dir0B5_
FN:66,_RNCNvNtCs9ZsrUc3T9pb_15neuralnote_core4tree8scan_dirs_0B5_
FN:19,_RNCNvNtCs9ZsrUc3T9pb_15neuralnote_core4tree9read_tree0B5_
FN:123,_RNvNtCs9ZsrUc3T9pb_15neuralnote_core4tree14markdown_files
FN:115,_RNvNtCs9ZsrUc3T9pb_15neuralnote_core4tree15is_markdown_ext
FN:129,_RNvNtCs9ZsrUc3T9pb_15neuralnote_core4tree16collect_markdown
FN:83,_RNvNtCs9ZsrUc3T9pb_15neuralnote_core4tree8node_for
FN:23,_RNvNtCs9ZsrUc3T9pb_15neuralnote_core4tree8scan_dir
FN:76,_RNvNtCs9ZsrUc3T9pb_15neuralnote_core4tree9is_hidden
FN:16,_RNvNtCs9ZsrUc3T9pb_15neuralnote_core4tree9read_tree
FNDA:7,_RNCNvNtCs9ZsrUc3T9pb_15neuralnote_core4tree8node_for0B5_
FNDA:6,_RNCNvNtCs9ZsrUc3T9pb_15neuralnote_core4tree8node_fors_0B5_
FNDA:83,_RNCNvNtCs9ZsrUc3T9pb_15neuralnote_core4tree8scan_dir0B5_
FNDA:59,_RNCNvNtCs9ZsrUc3T9pb_15neuralnote_core4tree8scan_dirs_0B5_
FNDA:0,_RNCNvNtCs9ZsrUc3T9pb_15neuralnote_core4tree9read_tree0B5_
FNDA:43,_RNvNtCs9ZsrUc3T9pb_15neuralnote_core4tree14markdown_files
FNDA:85,_RNvNtCs9ZsrUc3T9pb_15neuralnote_core4tree15is_markdown_ext
FNDA:55,_RNvNtCs9ZsrUc3T9pb_15neuralnote_core4tree16collect_markdown
FNDA:7,_RNvNtCs9ZsrUc3T9pb_15neuralnote_core4tree8node_for
FNDA:58,_RNvNtCs9ZsrUc3T9pb_15neuralnote_core4tree8scan_dir
FNDA:98,_RNvNtCs9ZsrUc3T9pb_15neuralnote_core4tree9is_hidden
FNDA:44,_RNvNtCs9ZsrUc3T9pb_15neuralnote_core4tree9read_tree
FNF:12
FNH:11
DA:16,44
DA:17,44
DA:18,44
DA:19,44
DA:20,44
DA:21,44
DA:23,58
DA:24,58
DA:26,98
DA:27,98
DA:28,98
DA:29,98
DA:30,0
DA:31,98
DA:33,98
DA:34,98
DA:35,2
DA:36,96
DA:37,96
DA:39,96
DA:40,13
DA:41,13
DA:43,0
DA:45,13
DA:46,13
DA:47,13
DA:48,13
DA:49,13
DA:50,13
DA:51,13
DA:52,13
DA:53,83
DA:54,83
DA:55,83
DA:56,83
DA:57,83
DA:58,83
DA:59,83
DA:60,83
DA:61,83
DA:62,83
DA:63,0
DA:66,59
DA:67,7
DA:68,2
DA:69,50
DA:70,59
DA:72,58
DA:73,58
DA:76,98
DA:77,98
DA:78,98
DA:83,7
DA:84,7
DA:85,7
DA:86,7
DA:87,7
DA:88,7
DA:89,7
DA:91,1
DA:92,1
DA:93,1
DA:94,1
DA:95,1
DA:96,1
DA:100,6
DA:101,6
DA:102,6
DA:103,6
DA:104,6
DA:105,6
DA:108,7
DA:115,85
DA:116,85
DA:117,85
DA:123,43
DA:124,43
DA:125,43
DA:126,43
DA:127,43
DA:129,55
DA:130,94
DA:131,94
DA:132,12
DA:134,82
DA:135,80
DA:136,80
DA:140,55
BRF:0
BRH:0
LF:93
LH:89
end_of_record
SF:/Users/thomaspritchard/Documents/projects/NeuralNote/crates/neuralnote-core/src/vault.rs
FN:11,_RNvNtCs9ZsrUc3T9pb_15neuralnote_core5vault10open_vault
FN:43,_RNvNtCs9ZsrUc3T9pb_15neuralnote_core5vault10vault_name
FN:30,_RNvNtCs9ZsrUc3T9pb_15neuralnote_core5vault12create_vault
FN:14,_RNCNvNtCs9ZsrUc3T9pb_15neuralnote_core5vault10open_vault0B5_
FN:46,_RNCNvNtCs9ZsrUc3T9pb_15neuralnote_core5vault10vault_name0B5_
FN:47,_RNCNvNtCs9ZsrUc3T9pb_15neuralnote_core5vault10vault_names_0B5_
FN:34,_RNCNvNtCs9ZsrUc3T9pb_15neuralnote_core5vault12create_vault0B5_
FNDA:4,_RNvNtCs9ZsrUc3T9pb_15neuralnote_core5vault10open_vault
FNDA:2,_RNvNtCs9ZsrUc3T9pb_15neuralnote_core5vault10vault_name
FNDA:2,_RNvNtCs9ZsrUc3T9pb_15neuralnote_core5vault12create_vault
FNDA:1,_RNCNvNtCs9ZsrUc3T9pb_15neuralnote_core5vault10open_vault0B5_
FNDA:2,_RNCNvNtCs9ZsrUc3T9pb_15neuralnote_core5vault10vault_name0B5_
FNDA:0,_RNCNvNtCs9ZsrUc3T9pb_15neuralnote_core5vault10vault_names_0B5_
FNDA:0,_RNCNvNtCs9ZsrUc3T9pb_15neuralnote_core5vault12create_vault0B5_
FNF:7
FNH:5
DA:11,4
DA:12,4
DA:13,4
DA:14,4
DA:15,3
DA:16,1
DA:17,1
DA:18,1
DA:19,1
DA:20,2
DA:22,2
DA:23,2
DA:24,2
DA:25,2
DA:26,2
DA:27,4
DA:30,2
DA:31,2
DA:32,2
DA:33,2
DA:34,2
DA:35,2
DA:36,2
DA:37,1
DA:38,1
DA:39,1
DA:40,1
DA:41,2
DA:43,2
DA:44,2
DA:45,2
DA:46,2
DA:47,2
DA:48,2
BRF:0
BRH:0
LF:38
LH:36
end_of_record